target datalayout = "e-m:e-p270:32:32-p271:32:32-p272:64:64-i64:64-i128:128-f80:128-n8:16:32:64-S128"
target triple = "x86_64-pc-linux-gnu"

%struct.AVCodecContext = type { ptr, i32, i32, ptr, i32, i32, ptr, ptr, ptr, i64, i32, i32, ptr, i32, %struct.AVRational, %struct.AVRational, %struct.AVRational, i32, i32, i32, i32, i32, %struct.AVRational, i32, i32, i32, i32, i32, i32, i32, i32, i32, i32, i32, ptr, ptr, i32, float, float, float, float, float, float, float, float, float, i32, i32, i32, i32, i32, i32, i32, i32, i32, i32, i32, i32, ptr, ptr, ptr, i32, i32, i32, i32, i32, i32, i32, i32, i32, i32, %struct.AVChannelLayout, i32, i32, i32, i32, i32, i32, i32, i32, ptr, i32, i32, i32, float, float, i32, i32, i32, i32, i32, ptr, i64, i64, float, float, i32, i32, ptr, ptr, i32, i32, i32, i32, i32, ptr, ptr, ptr, ptr, i32, i32, [8 x i64], i32, i32, i32, i32, i32, i32, i32, ptr, ptr, i32, i32, i32, i32, i32, i32, i32, i32, i32, i32, ptr, ptr, i32, i32, ptr, ptr, ptr, ptr, i32, i32, i64, i32, i32, i64, ptr, i64, ptr, i32, ptr, i32 }
%struct.AVRational = type { i32, i32 }
%struct.AVChannelLayout = type { i32, i32, %union.anon.0, ptr }
%union.anon.0 = type { i64 }
%struct.WavpackContext = type { ptr, ptr, i32, i32, i32, i32, ptr, ptr, ptr, ptr, i32 }
%struct.AVFrame = type { [8 x ptr], [8 x i32], ptr, i32, i32, i32, i32, i32, %struct.AVRational, i64, i64, %struct.AVRational, i32, ptr, i32, i32, [8 x ptr], ptr, i32, ptr, i32, i32, i32, i32, i32, i32, i32, i64, ptr, i32, ptr, ptr, i64, i64, i64, i64, ptr, %struct.AVChannelLayout, i64 }
%struct.DSDContext = type { [16 x i8], i32 }

; Function Attrs: nounwind uwtable
define internal i32 @dsd_channel(ptr noundef %0, ptr noundef %1, i32 noundef %2, i32 noundef %3) #0 {
  %5 = alloca ptr, align 8
  %6 = alloca ptr, align 8
  %7 = alloca i32, align 4
  %8 = alloca i32, align 4
  %9 = alloca ptr, align 8
  %10 = alloca ptr, align 8
  store ptr %0, ptr %5, align 8, !tbaa !4
  store ptr %1, ptr %6, align 8, !tbaa !64
  store i32 %2, ptr %7, align 4, !tbaa !51
  store i32 %3, ptr %8, align 4, !tbaa !51
  call void @llvm.lifetime.start.p0(i64 8, ptr %9) #11
  %11 = load ptr, ptr %5, align 8, !tbaa !4
  %12 = getelementptr inbounds nuw %struct.AVCodecContext, ptr %11, i32 0, i32 6
  %13 = load ptr, ptr %12, align 8, !tbaa !9
  store ptr %13, ptr %9, align 8, !tbaa !29
  call void @llvm.lifetime.start.p0(i64 8, ptr %10) #11
  %14 = load ptr, ptr %6, align 8, !tbaa !64
  store ptr %14, ptr %10, align 8, !tbaa !42
  %15 = load ptr, ptr %9, align 8, !tbaa !29
  %16 = getelementptr inbounds nuw %struct.WavpackContext, ptr %15, i32 0, i32 6
  %17 = load ptr, ptr %16, align 8, !tbaa !37
  %18 = load i32, ptr %7, align 4, !tbaa !51
  %19 = sext i32 %18 to i64
  %20 = getelementptr inbounds %struct.DSDContext, ptr %17, i64 %19
  %21 = load ptr, ptr %9, align 8, !tbaa !29
  %22 = getelementptr inbounds nuw %struct.WavpackContext, ptr %21, i32 0, i32 3
  %23 = load i32, ptr %22, align 4, !tbaa !54
  %24 = sext i32 %23 to i64
  %25 = load ptr, ptr %10, align 8, !tbaa !42
  %26 = getelementptr inbounds nuw %struct.AVFrame, ptr %25, i32 0, i32 2
  %27 = load ptr, ptr %26, align 8, !tbaa !127
  %28 = load i32, ptr %7, align 4, !tbaa !51
  %29 = sext i32 %28 to i64
  %30 = getelementptr inbounds ptr, ptr %27, i64 %29
  %31 = load ptr, ptr %30, align 8, !tbaa !49
  %32 = load ptr, ptr %10, align 8, !tbaa !42
  %33 = getelementptr inbounds nuw %struct.AVFrame, ptr %32, i32 0, i32 2
  %34 = load ptr, ptr %33, align 8, !tbaa !127
  %35 = load i32, ptr %7, align 4, !tbaa !51
  %36 = sext i32 %35 to i64
  %37 = getelementptr inbounds ptr, ptr %34, i64 %36
  %38 = load ptr, ptr %37, align 8, !tbaa !49
  call void @ff_dsd2pcm_translate(ptr noundef %20, i64 noundef %24, i32 noundef 0, ptr noundef %31, i64 noundef 4, ptr noundef %38, i64 noundef 1)
  call void @llvm.lifetime.end.p0(i64 8, ptr %10) #11
  call void @llvm.lifetime.end.p0(i64 8, ptr %9) #11
  ret i32 0
}