; Function Attrs: nounwind uwtable
define internal noundef i32 @dsd_channel(ptr noundef readonly captures(none) %0, ptr noundef readonly captures(none) %1, i32 noundef %2, i32 %3) #0 {
  %5 = getelementptr inbounds nuw i8, ptr %0, i64 32
  %6 = load ptr, ptr %5, align 8, !tbaa !4
  %7 = getelementptr inbounds nuw i8, ptr %6, i64 32
  %8 = load ptr, ptr %7, align 8, !tbaa !34
  %9 = sext i32 %2 to i64
  %10 = getelementptr inbounds %struct.DSDContext, ptr %8, i64 %9
  %11 = getelementptr inbounds nuw i8, ptr %6, i64 20
  %12 = load i32, ptr %11, align 4, !tbaa !44
  %13 = sext i32 %12 to i64
  %14 = getelementptr inbounds nuw i8, ptr %1, i64 96
  %15 = load ptr, ptr %14, align 8, !tbaa !115
  %16 = getelementptr inbounds ptr, ptr %15, i64 %9
  %17 = load ptr, ptr %16, align 8, !tbaa !116
  tail call void @ff_dsd2pcm_translate(ptr noundef %10, i64 noundef %13, i32 noundef 0, ptr noundef %17, i64 noundef 4, ptr noundef %17, i64 noundef 1) #12
  ret i32 0
}